; Function Attrs: mustprogress uwtable
define noundef i32 @ucol_nextSortKeyPart_75(ptr noundef %coll, ptr noundef %iter, ptr noundef %state, ptr noundef %dest, i32 noundef %count, ptr noundef %status) local_unnamed_addr #0 {
entry:
  %cmp = icmp eq ptr %status, null
  br i1 %cmp, label %return, label %lor.lhs.false

lor.lhs.false:                                    ; preds = %entry
  %0 = load i32, ptr %status, align 4
  %cmp.i = icmp slt i32 %0, 1
  br i1 %cmp.i, label %if.end, label %return

if.end:                                           ; preds = %lor.lhs.false
  %vtable = load ptr, ptr %coll, align 8
  %vfn = getelementptr inbounds i8, ptr %vtable, i64 304
  %1 = load ptr, ptr %vfn, align 8
  %call2 = tail call noundef i32 %1(ptr noundef nonnull align 8 dereferenceable(8) %coll, ptr noundef %iter, ptr noundef %state, ptr noundef %dest, i32 noundef %count, ptr noundef nonnull align 4 dereferenceable(4) %status)
  br label %return

return:                                           ; preds = %entry, %lor.lhs.false, %if.end
  %retval.0 = phi i32 [ %call2, %if.end ], [ 0, %lor.lhs.false ], [ 0, %entry ]
  ret i32 %retval.0
}